; Function Attrs: nounwind uwtable
define ptr @l_Lean_Server_RequestM_findInfoTreeAtPos(ptr noundef %0, ptr noundef %1, i8 noundef zeroext %2) local_unnamed_addr #1 {
  %4 = tail call ptr @l_Lean_Server_RequestM_findCmdDataAtPos(ptr noundef %0, ptr noundef %1, i8 noundef zeroext %2)
  %5 = load ptr, ptr @l_Lean_Server_RequestM_findInfoTreeAtPos___closed__1, align 8, !tbaa !9
  %6 = load ptr, ptr @l_Task_Priority_default, align 8, !tbaa !9
  %7 = ptrtoint ptr %6 to i64
  %8 = lshr i64 %7, 1
  %9 = trunc i64 %8 to i32
  %10 = tail call ptr @lean_task_map_core(ptr noundef %5, ptr noundef %4, i32 noundef %9, i1 noundef zeroext true, i1 noundef zeroext false) #6
  ret ptr %10
}